target datalayout = "e-m:e-p270:32:32-p271:32:32-p272:64:64-i64:64-i128:128-f80:128-n8:16:32:64-S128"
target triple = "x86_64-pc-linux-gnu"

@pairwise_name = internal global ptr null, align 8
@dsaparam_file = internal global ptr null, align 8
@libctx = internal global ptr null, align 8
@.str.20 = private unnamed_addr constant [23 x i8] c"Failed to load config\0A\00", align 1
@.str.21 = private unnamed_addr constant [29 x i8] c"test_keygen_pairwise_failure\00", align 1

; Function Attrs: nounwind uwtable
define dso_local i32 @setup_tests() #0 {
  %1 = alloca i32, align 4
  %2 = alloca i32, align 4
  %3 = alloca ptr, align 8
  %4 = alloca i32, align 4
  call void @llvm.lifetime.start.p0(i64 4, ptr %2) #4
  call void @llvm.lifetime.start.p0(i64 8, ptr %3) #4
  store ptr null, ptr %3, align 8, !tbaa !4
  br label %5

5:                                                ; preds = %19, %0
  %6 = call i32 @opt_next()
  store i32 %6, ptr %2, align 4, !tbaa !9
  %7 = icmp ne i32 %6, 0
  br i1 %7, label %8, label %20

8:                                                ; preds = %5
  %9 = load i32, ptr %2, align 4, !tbaa !9
  switch i32 %9, label %17 [
    i32 2, label %10
    i32 3, label %12
    i32 4, label %14
    i32 500, label %16
    i32 501, label %16
    i32 502, label %16
    i32 503, label %16
    i32 504, label %16
    i32 505, label %16
    i32 -1, label %18
  ]

10:                                               ; preds = %8
  %11 = call ptr @opt_arg()
  store ptr %11, ptr %3, align 8, !tbaa !4
  br label %19

12:                                               ; preds = %8
  %13 = call ptr @opt_arg()
  store ptr %13, ptr @pairwise_name, align 8, !tbaa !4
  br label %19

14:                                               ; preds = %8
  %15 = call ptr @opt_arg()
  store ptr %15, ptr @dsaparam_file, align 8, !tbaa !4
  br label %19

16:                                               ; preds = %8, %8, %8, %8, %8, %8
  br label %19

17:                                               ; preds = %8
  br label %18

18:                                               ; preds = %8, %17
  store i32 0, ptr %1, align 4
  store i32 1, ptr %4, align 4
  br label %33

19:                                               ; preds = %16, %14, %12, %10
  br label %5, !llvm.loop !11

20:                                               ; preds = %5
  %21 = call ptr @OSSL_LIB_CTX_new()
  store ptr %21, ptr @libctx, align 8, !tbaa !13
  %22 = load ptr, ptr @libctx, align 8, !tbaa !13
  %23 = icmp eq ptr %22, null
  br i1 %23, label %24, label %25

24:                                               ; preds = %20
  store i32 0, ptr %1, align 4
  store i32 1, ptr %4, align 4
  br label %33

25:                                               ; preds = %20
  %26 = load ptr, ptr @libctx, align 8, !tbaa !13
  %27 = load ptr, ptr %3, align 8, !tbaa !4
  %28 = call i32 @OSSL_LIB_CTX_load_config(ptr noundef %26, ptr noundef %27)
  %29 = icmp ne i32 %28, 0
  br i1 %29, label %32, label %30

30:                                               ; preds = %25
  %31 = call i32 (ptr, ...) @opt_printf_stderr(ptr noundef @.str.20)
  store i32 0, ptr %1, align 4
  store i32 1, ptr %4, align 4
  br label %33

32:                                               ; preds = %25
  call void @add_test(ptr noundef @.str.21, ptr noundef @test_keygen_pairwise_failure)
  store i32 1, ptr %1, align 4
  store i32 1, ptr %4, align 4
  br label %33

33:                                               ; preds = %32, %30, %24, %18
  call void @llvm.lifetime.end.p0(i64 8, ptr %3) #4
  call void @llvm.lifetime.end.p0(i64 4, ptr %2) #4
  %34 = load i32, ptr %1, align 4
  ret i32 %34
}