; Function Attrs: nounwind uwtable
define dso_local range(i32 0, 2) i32 @setup_tests() local_unnamed_addr #1 {
  br label %1

1:                                                ; preds = %.backedge, %0
  %.0 = phi ptr [ null, %0 ], [ %.0.be, %.backedge ]
  %2 = tail call i32 @opt_next() #5
  switch i32 %2, label %.loopexit [
    i32 0, label %9
    i32 2, label %3
    i32 3, label %5
    i32 4, label %7
    i32 500, label %.backedge
    i32 501, label %.backedge
    i32 502, label %.backedge
    i32 503, label %.backedge
    i32 504, label %.backedge
    i32 505, label %.backedge
  ]

.backedge:                                        ; preds = %1, %1, %1, %1, %1, %1, %7, %5, %3
  %.0.be = phi ptr [ %.0, %7 ], [ %.0, %5 ], [ %4, %3 ], [ %.0, %1 ], [ %.0, %1 ], [ %.0, %1 ], [ %.0, %1 ], [ %.0, %1 ], [ %.0, %1 ]
  br label %1, !llvm.loop !4

3:                                                ; preds = %1
  %4 = tail call ptr @opt_arg() #5
  br label %.backedge

5:                                                ; preds = %1
  %6 = tail call ptr @opt_arg() #5
  store ptr %6, ptr @pairwise_name, align 8, !tbaa !6
  br label %.backedge

7:                                                ; preds = %1
  %8 = tail call ptr @opt_arg() #5
  store ptr %8, ptr @dsaparam_file, align 8, !tbaa !6
  br label %.backedge

9:                                                ; preds = %1
  %10 = tail call ptr @OSSL_LIB_CTX_new() #5
  store ptr %10, ptr @libctx, align 8, !tbaa !11
  %11 = icmp eq ptr %10, null
  br i1 %11, label %.loopexit, label %12

12:                                               ; preds = %9
  %13 = tail call i32 @OSSL_LIB_CTX_load_config(ptr noundef nonnull %10, ptr noundef %.0) #5
  %.not5 = icmp eq i32 %13, 0
  br i1 %.not5, label %14, label %16

14:                                               ; preds = %12
  %15 = tail call i32 (ptr, ...) @opt_printf_stderr(ptr noundef nonnull @.str.20) #5
  br label %.loopexit

16:                                               ; preds = %12
  tail call void @add_test(ptr noundef nonnull @.str.21, ptr noundef nonnull @test_keygen_pairwise_failure) #5
  br label %.loopexit

.loopexit:                                        ; preds = %1, %9, %16, %14
  %.02 = phi i32 [ 1, %16 ], [ 0, %14 ], [ 0, %9 ], [ 0, %1 ]
  ret i32 %.02
}